target datalayout = "e-m:e-p270:32:32-p271:32:32-p272:64:64-i64:64-i128:128-f80:128-n8:16:32:64-S128"
target triple = "x86_64-pc-linux-gnu"

%struct._priv_exr_context_t = type { i8, i8, i8, i8, i8, i8, i8, i8, %struct.exr_attr_string_t, %struct.exr_attr_string_t, ptr, ptr, ptr, ptr, ptr, ptr, ptr, ptr, i32, i32, i32, i32, i32, float, ptr, ptr, ptr, i64, ptr, ptr, i64, i32, i32, i32, i32, %struct._priv_exr_part_t, ptr, ptr, %struct.exr_attribute_list, %union.pthread_mutex_t, i8, i8, [2 x i8], i32 }
%struct.exr_attr_string_t = type { i32, i32, ptr }
%struct._priv_exr_part_t = type { i32, i32, %struct.exr_attribute_list, ptr, ptr, ptr, ptr, ptr, ptr, ptr, ptr, ptr, ptr, ptr, ptr, ptr, ptr, %struct.exr_attr_box2i_t, %struct.exr_attr_box2i_t, i32, i32, i32, float, i32, i32, ptr, ptr, ptr, ptr, i64, i16, i16, i32, i64, i64 }
%struct.exr_attr_box2i_t = type { %struct.exr_attr_v2i_t, %struct.exr_attr_v2i_t }
%struct.exr_attr_v2i_t = type { i32, i32 }
%struct.exr_attribute_list = type { i32, i32, ptr, ptr }
%union.pthread_mutex_t = type { %struct.__pthread_mutex_s }
%struct.__pthread_mutex_s = type { i32, i32, i32, i32, i32, i16, i16, %struct.__pthread_internal_list }
%struct.__pthread_internal_list = type { ptr, ptr }

; Function Attrs: inlinehint nounwind uwtable
define internal void @internal_exr_unlock(ptr noundef %0) #2 {
  %2 = alloca ptr, align 8
  %3 = alloca ptr, align 8
  store ptr %0, ptr %2, align 8, !tbaa !12
  call void @llvm.lifetime.start.p0(i64 8, ptr %3) #9
  %4 = load ptr, ptr %2, align 8, !tbaa !12
  %5 = ptrtoint ptr %4 to i64
  %6 = inttoptr i64 %5 to ptr
  store ptr %6, ptr %3, align 8, !tbaa !12
  %7 = load ptr, ptr %3, align 8, !tbaa !12
  %8 = getelementptr inbounds nuw %struct._priv_exr_context_t, ptr %7, i32 0, i32 39
  %9 = call i32 @pthread_mutex_unlock(ptr noundef %8) #9
  call void @llvm.lifetime.end.p0(i64 8, ptr %3) #9
  ret void
}

; Function Attrs: inlinehint nounwind uwtable
define internal void @internal_exr_lock(ptr noundef %0) #2 {
  %2 = alloca ptr, align 8
  %3 = alloca ptr, align 8
  store ptr %0, ptr %2, align 8, !tbaa !12
  call void @llvm.lifetime.start.p0(i64 8, ptr %3) #9
  %4 = load ptr, ptr %2, align 8, !tbaa !12
  %5 = ptrtoint ptr %4 to i64
  %6 = inttoptr i64 %5 to ptr
  store ptr %6, ptr %3, align 8, !tbaa !12
  %7 = load ptr, ptr %3, align 8, !tbaa !12
  %8 = getelementptr inbounds nuw %struct._priv_exr_context_t, ptr %7, i32 0, i32 39
  %9 = call i32 @pthread_mutex_lock(ptr noundef %8) #9
  call void @llvm.lifetime.end.p0(i64 8, ptr %3) #9
  ret void
}

; Function Attrs: nounwind uwtable
define i32 @exr_get_user_data(ptr noundef %0, ptr noundef %1) #0 {
  %3 = alloca i32, align 4
  %4 = alloca ptr, align 8
  %5 = alloca ptr, align 8
  store ptr %0, ptr %4, align 8, !tbaa !12
  store ptr %1, ptr %5, align 8, !tbaa !79
  %6 = load ptr, ptr %4, align 8, !tbaa !12
  %7 = icmp ne ptr %6, null
  br i1 %7, label %9, label %8

8:                                                ; preds = %2
  store i32 2, ptr %3, align 4
  br label %47

9:                                                ; preds = %2
  %10 = load ptr, ptr %4, align 8, !tbaa !12
  %11 = getelementptr inbounds nuw %struct._priv_exr_context_t, ptr %10, i32 0, i32 0
  %12 = load i8, ptr %11, align 8, !tbaa !66
  %13 = zext i8 %12 to i32
  %14 = icmp eq i32 %13, 1
  br i1 %14, label %15, label %17

15:                                               ; preds = %9
  %16 = load ptr, ptr %4, align 8, !tbaa !12
  call void @internal_exr_lock(ptr noundef %16)
  br label %17

17:                                               ; preds = %15, %9
  %18 = load ptr, ptr %5, align 8, !tbaa !79
  %19 = icmp ne ptr %18, null
  br i1 %19, label %20, label %33

20:                                               ; preds = %17
  %21 = load ptr, ptr %4, align 8, !tbaa !12
  %22 = getelementptr inbounds nuw %struct._priv_exr_context_t, ptr %21, i32 0, i32 24
  %23 = load ptr, ptr %22, align 8, !tbaa !80
  %24 = load ptr, ptr %5, align 8, !tbaa !79
  store ptr %23, ptr %24, align 8, !tbaa !45
  %25 = load ptr, ptr %4, align 8, !tbaa !12
  %26 = getelementptr inbounds nuw %struct._priv_exr_context_t, ptr %25, i32 0, i32 0
  %27 = load i8, ptr %26, align 8, !tbaa !66
  %28 = zext i8 %27 to i32
  %29 = icmp eq i32 %28, 1
  br i1 %29, label %30, label %32

30:                                               ; preds = %20
  %31 = load ptr, ptr %4, align 8, !tbaa !12
  call void @internal_exr_unlock(ptr noundef %31)
  br label %32

32:                                               ; preds = %30, %20
  store i32 0, ptr %3, align 4
  br label %47

33:                                               ; preds = %17
  %34 = load ptr, ptr %4, align 8, !tbaa !12
  %35 = getelementptr inbounds nuw %struct._priv_exr_context_t, ptr %34, i32 0, i32 0
  %36 = load i8, ptr %35, align 8, !tbaa !66
  %37 = zext i8 %36 to i32
  %38 = icmp eq i32 %37, 1
  br i1 %38, label %39, label %41

39:                                               ; preds = %33
  %40 = load ptr, ptr %4, align 8, !tbaa !12
  call void @internal_exr_unlock(ptr noundef %40)
  br label %41

41:                                               ; preds = %39, %33
  %42 = load ptr, ptr %4, align 8, !tbaa !12
  %43 = getelementptr inbounds nuw %struct._priv_exr_context_t, ptr %42, i32 0, i32 12
  %44 = load ptr, ptr %43, align 8, !tbaa !53
  %45 = load ptr, ptr %4, align 8, !tbaa !12
  %46 = call i32 %44(ptr noundef %45, i32 noundef 3)
  store i32 %46, ptr %3, align 4
  br label %47

47:                                               ; preds = %41, %32, %8
  %48 = load i32, ptr %3, align 4
  ret i32 %48
}