; Function Attrs: nounwind uwtable
define i32 @exr_get_user_data(ptr noundef %0, ptr noundef writeonly %1) local_unnamed_addr #0 {
  %.not = icmp eq ptr %0, null
  br i1 %.not, label %28, label %3

3:                                                ; preds = %2
  %4 = load i8, ptr %0, align 8, !tbaa !56
  %5 = icmp eq i8 %4, 1
  br i1 %5, label %6, label %9

6:                                                ; preds = %3
  %7 = getelementptr inbounds nuw i8, ptr %0, i64 504
  %8 = tail call i32 @pthread_mutex_lock(ptr noundef nonnull %7) #13
  br label %9

9:                                                ; preds = %6, %3
  %.not14 = icmp eq ptr %1, null
  br i1 %.not14, label %18, label %10

10:                                               ; preds = %9
  %11 = getelementptr inbounds nuw i8, ptr %0, i64 128
  %12 = load ptr, ptr %11, align 8, !tbaa !76
  store ptr %12, ptr %1, align 8, !tbaa !77
  %13 = load i8, ptr %0, align 8, !tbaa !56
  %14 = icmp eq i8 %13, 1
  br i1 %14, label %15, label %28

15:                                               ; preds = %10
  %16 = getelementptr inbounds nuw i8, ptr %0, i64 504
  %17 = tail call i32 @pthread_mutex_unlock(ptr noundef nonnull %16) #13
  br label %28

18:                                               ; preds = %9
  %19 = load i8, ptr %0, align 8, !tbaa !56
  %20 = icmp eq i8 %19, 1
  br i1 %20, label %21, label %24

21:                                               ; preds = %18
  %22 = getelementptr inbounds nuw i8, ptr %0, i64 504
  %23 = tail call i32 @pthread_mutex_unlock(ptr noundef nonnull %22) #13
  br label %24

24:                                               ; preds = %21, %18
  %25 = getelementptr inbounds nuw i8, ptr %0, i64 56
  %26 = load ptr, ptr %25, align 8, !tbaa !55
  %27 = tail call i32 %26(ptr noundef nonnull %0, i32 noundef 3) #13
  br label %28

28:                                               ; preds = %10, %15, %2, %24
  %.0 = phi i32 [ %27, %24 ], [ 2, %2 ], [ 0, %15 ], [ 0, %10 ]
  ret i32 %.0
}